target datalayout = "e-m:e-p270:32:32-p271:32:32-p272:64:64-i64:64-i128:128-f80:128-n8:16:32:64-S128"
target triple = "x86_64-pc-linux-gnu"

%"class.std::allocator" = type { i8 }

@_ZZN32pxrInternal_v0_24__pxrReserved__L17_FixupStringNamesEPNSt7__cxx1112basic_stringIcSt11char_traitsIcESaIcEEEE4fromB5cxx11 = internal global ptr null, align 8
@_ZGVZN32pxrInternal_v0_24__pxrReserved__L17_FixupStringNamesEPNSt7__cxx1112basic_stringIcSt11char_traitsIcESaIcEEEE4fromB5cxx11 = internal global i64 0, align 8
@_ZZN32pxrInternal_v0_24__pxrReserved__L17_FixupStringNamesEPNSt7__cxx1112basic_stringIcSt11char_traitsIcESaIcEEEE2toB5cxx11 = internal global ptr null, align 8
@_ZGVZN32pxrInternal_v0_24__pxrReserved__L17_FixupStringNamesEPNSt7__cxx1112basic_stringIcSt11char_traitsIcESaIcEEEE2toB5cxx11 = internal global i64 0, align 8
@.str.1 = private unnamed_addr constant [7 x i8] c"string\00", align 1
@.str.2 = private unnamed_addr constant [6 x i8] c"std::\00", align 1

; Function Attrs: mustprogress uwtable
define internal void @_ZN32pxrInternal_v0_24__pxrReserved__L17_FixupStringNamesEPNSt7__cxx1112basic_stringIcSt11char_traitsIcESaIcEEE(ptr noundef %0) #0 personality ptr @__gxx_personality_v0 {
  %2 = alloca ptr, align 8
  %3 = alloca ptr, align 8
  %4 = alloca i32, align 4
  %5 = alloca %"class.std::allocator", align 1
  %6 = alloca i1, align 1
  %7 = alloca i64, align 8
  %8 = alloca i64, align 8
  %9 = alloca i64, align 8
  %10 = alloca i64, align 8
  store ptr %0, ptr %2, align 8
  %11 = load atomic i8, ptr @_ZGVZN32pxrInternal_v0_24__pxrReserved__L17_FixupStringNamesEPNSt7__cxx1112basic_stringIcSt11char_traitsIcESaIcEEEE4fromB5cxx11 acquire, align 8
  %12 = icmp eq i8 %11, 0
  br i1 %12, label %13, label %19, !prof !6

13:                                               ; preds = %1
  %14 = call i32 @__cxa_guard_acquire(ptr @_ZGVZN32pxrInternal_v0_24__pxrReserved__L17_FixupStringNamesEPNSt7__cxx1112basic_stringIcSt11char_traitsIcESaIcEEEE4fromB5cxx11) #4
  %15 = icmp ne i32 %14, 0
  br i1 %15, label %16, label %19

16:                                               ; preds = %13
  %17 = invoke noundef ptr @_ZN32pxrInternal_v0_24__pxrReserved__L27_NewDemangledStringTypeNameB5cxx11Ev()
          to label %18 unwind label %69

18:                                               ; preds = %16
  store ptr %17, ptr @_ZZN32pxrInternal_v0_24__pxrReserved__L17_FixupStringNamesEPNSt7__cxx1112basic_stringIcSt11char_traitsIcESaIcEEEE4fromB5cxx11, align 8
  call void @__cxa_guard_release(ptr @_ZGVZN32pxrInternal_v0_24__pxrReserved__L17_FixupStringNamesEPNSt7__cxx1112basic_stringIcSt11char_traitsIcESaIcEEEE4fromB5cxx11) #4
  br label %19

19:                                               ; preds = %18, %13, %1
  %20 = load atomic i8, ptr @_ZGVZN32pxrInternal_v0_24__pxrReserved__L17_FixupStringNamesEPNSt7__cxx1112basic_stringIcSt11char_traitsIcESaIcEEEE2toB5cxx11 acquire, align 8
  %21 = icmp eq i8 %20, 0
  br i1 %21, label %22, label %29, !prof !6

22:                                               ; preds = %19
  %23 = call i32 @__cxa_guard_acquire(ptr @_ZGVZN32pxrInternal_v0_24__pxrReserved__L17_FixupStringNamesEPNSt7__cxx1112basic_stringIcSt11char_traitsIcESaIcEEEE2toB5cxx11) #4
  %24 = icmp ne i32 %23, 0
  br i1 %24, label %25, label %29

25:                                               ; preds = %22
  %26 = invoke noalias noundef nonnull ptr @_Znwm(i64 noundef 32) #13
          to label %27 unwind label %73

27:                                               ; preds = %25
  store i1 true, ptr %6, align 1
  call void @_ZNSaIcEC1Ev(ptr noundef nonnull align 1 dereferenceable(1) %5) #4
  invoke void @_ZNSt7__cxx1112basic_stringIcSt11char_traitsIcESaIcEEC2IS3_EEPKcRKS3_(ptr noundef nonnull align 8 dereferenceable(32) %26, ptr noundef @.str.1, ptr noundef nonnull align 1 dereferenceable(1) %5)
          to label %28 unwind label %77

28:                                               ; preds = %27
  store i1 false, ptr %6, align 1
  call void @_ZNSaIcED1Ev(ptr noundef nonnull align 1 dereferenceable(1) %5) #4
  store ptr %26, ptr @_ZZN32pxrInternal_v0_24__pxrReserved__L17_FixupStringNamesEPNSt7__cxx1112basic_stringIcSt11char_traitsIcESaIcEEEE2toB5cxx11, align 8
  call void @__cxa_guard_release(ptr @_ZGVZN32pxrInternal_v0_24__pxrReserved__L17_FixupStringNamesEPNSt7__cxx1112basic_stringIcSt11char_traitsIcESaIcEEEE2toB5cxx11) #4
  br label %29

29:                                               ; preds = %28, %22, %19
  store i64 0, ptr %7, align 8
  br label %30

30:                                               ; preds = %85, %29
  %31 = load ptr, ptr %2, align 8
  %32 = load ptr, ptr @_ZZN32pxrInternal_v0_24__pxrReserved__L17_FixupStringNamesEPNSt7__cxx1112basic_stringIcSt11char_traitsIcESaIcEEEE4fromB5cxx11, align 8
  %33 = load i64, ptr %7, align 8
  %34 = call noundef i64 @_ZNKSt7__cxx1112basic_stringIcSt11char_traitsIcESaIcEE4findERKS4_m(ptr noundef nonnull align 8 dereferenceable(32) %31, ptr noundef nonnull align 8 dereferenceable(32) %32, i64 noundef %33) #4
  store i64 %34, ptr %7, align 8
  %35 = icmp ne i64 %34, -1
  br i1 %35, label %36, label %90

36:                                               ; preds = %30
  %37 = load ptr, ptr %2, align 8
  %38 = load i64, ptr %7, align 8
  %39 = load ptr, ptr @_ZZN32pxrInternal_v0_24__pxrReserved__L17_FixupStringNamesEPNSt7__cxx1112basic_stringIcSt11char_traitsIcESaIcEEEE4fromB5cxx11, align 8
  %40 = call noundef i64 @_ZNKSt7__cxx1112basic_stringIcSt11char_traitsIcESaIcEE4sizeEv(ptr noundef nonnull align 8 dereferenceable(32) %39) #4
  %41 = load ptr, ptr @_ZZN32pxrInternal_v0_24__pxrReserved__L17_FixupStringNamesEPNSt7__cxx1112basic_stringIcSt11char_traitsIcESaIcEEEE2toB5cxx11, align 8
  %42 = call noundef nonnull align 8 dereferenceable(32) ptr @_ZNSt7__cxx1112basic_stringIcSt11char_traitsIcESaIcEE7replaceEmmRKS4_(ptr noundef nonnull align 8 dereferenceable(32) %37, i64 noundef %38, i64 noundef %40, ptr noundef nonnull align 8 dereferenceable(32) %41)
  %43 = load ptr, ptr @_ZZN32pxrInternal_v0_24__pxrReserved__L17_FixupStringNamesEPNSt7__cxx1112basic_stringIcSt11char_traitsIcESaIcEEEE2toB5cxx11, align 8
  %44 = call noundef i64 @_ZNKSt7__cxx1112basic_stringIcSt11char_traitsIcESaIcEE4sizeEv(ptr noundef nonnull align 8 dereferenceable(32) %43) #4
  %45 = load i64, ptr %7, align 8
  %46 = add i64 %45, %44
  store i64 %46, ptr %7, align 8
  store i64 0, ptr %8, align 8
  %47 = load i64, ptr %7, align 8
  store i64 %47, ptr %9, align 8
  %48 = load ptr, ptr %2, align 8
  %49 = call noundef i64 @_ZNKSt7__cxx1112basic_stringIcSt11char_traitsIcESaIcEE4sizeEv(ptr noundef nonnull align 8 dereferenceable(32) %48) #4
  store i64 %49, ptr %10, align 8
  br label %50

50:                                               ; preds = %64, %36
  %51 = load i64, ptr %9, align 8
  %52 = load i64, ptr %10, align 8
  %53 = icmp ne i64 %51, %52
  br i1 %53, label %54, label %61

54:                                               ; preds = %50
  %55 = load ptr, ptr %2, align 8
  %56 = load i64, ptr %9, align 8
  %57 = call noundef nonnull align 1 dereferenceable(1) ptr @_ZNSt7__cxx1112basic_stringIcSt11char_traitsIcESaIcEEixEm(ptr noundef nonnull align 8 dereferenceable(32) %55, i64 noundef %56)
  %58 = load i8, ptr %57, align 1
  %59 = sext i8 %58 to i32
  %60 = icmp eq i32 %59, 32
  br label %61

61:                                               ; preds = %54, %50
  %62 = phi i1 [ false, %50 ], [ %60, %54 ]
  br i1 %62, label %63, label %85

63:                                               ; preds = %61
  br label %64

64:                                               ; preds = %63
  %65 = load i64, ptr %9, align 8
  %66 = add i64 %65, 1
  store i64 %66, ptr %9, align 8
  %67 = load i64, ptr %8, align 8
  %68 = add i64 %67, 1
  store i64 %68, ptr %8, align 8
  br label %50, !llvm.loop !7

69:                                               ; preds = %16
  %70 = landingpad { ptr, i32 }
          cleanup
  %71 = extractvalue { ptr, i32 } %70, 0
  store ptr %71, ptr %3, align 8
  %72 = extractvalue { ptr, i32 } %70, 1
  store i32 %72, ptr %4, align 4
  call void @__cxa_guard_abort(ptr @_ZGVZN32pxrInternal_v0_24__pxrReserved__L17_FixupStringNamesEPNSt7__cxx1112basic_stringIcSt11char_traitsIcESaIcEEEE4fromB5cxx11) #4
  br label %101

73:                                               ; preds = %25
  %74 = landingpad { ptr, i32 }
          cleanup
  %75 = extractvalue { ptr, i32 } %74, 0
  store ptr %75, ptr %3, align 8
  %76 = extractvalue { ptr, i32 } %74, 1
  store i32 %76, ptr %4, align 4
  br label %84

77:                                               ; preds = %27
  %78 = landingpad { ptr, i32 }
          cleanup
  %79 = extractvalue { ptr, i32 } %78, 0
  store ptr %79, ptr %3, align 8
  %80 = extractvalue { ptr, i32 } %78, 1
  store i32 %80, ptr %4, align 4
  call void @_ZNSaIcED1Ev(ptr noundef nonnull align 1 dereferenceable(1) %5) #4
  %81 = load i1, ptr %6, align 1
  br i1 %81, label %82, label %83

82:                                               ; preds = %77
  call void @_ZdlPvm(ptr noundef %26, i64 noundef 32) #14
  br label %83

83:                                               ; preds = %82, %77
  br label %84

84:                                               ; preds = %83, %73
  call void @__cxa_guard_abort(ptr @_ZGVZN32pxrInternal_v0_24__pxrReserved__L17_FixupStringNamesEPNSt7__cxx1112basic_stringIcSt11char_traitsIcESaIcEEEE2toB5cxx11) #4
  br label %101

85:                                               ; preds = %61
  %86 = load ptr, ptr %2, align 8
  %87 = load i64, ptr %7, align 8
  %88 = load i64, ptr %8, align 8
  %89 = call noundef nonnull align 8 dereferenceable(32) ptr @_ZNSt7__cxx1112basic_stringIcSt11char_traitsIcESaIcEE5eraseEmm(ptr noundef nonnull align 8 dereferenceable(32) %86, i64 noundef %87, i64 noundef %88)
  br label %30, !llvm.loop !8

90:                                               ; preds = %30
  store i64 0, ptr %7, align 8
  br label %91

91:                                               ; preds = %96, %90
  %92 = load ptr, ptr %2, align 8
  %93 = load i64, ptr %7, align 8
  %94 = call noundef i64 @_ZNKSt7__cxx1112basic_stringIcSt11char_traitsIcESaIcEE4findEPKcm(ptr noundef nonnull align 8 dereferenceable(32) %92, ptr noundef @.str.2, i64 noundef %93) #4
  store i64 %94, ptr %7, align 8
  %95 = icmp ne i64 %94, -1
  br i1 %95, label %96, label %100

96:                                               ; preds = %91
  %97 = load ptr, ptr %2, align 8
  %98 = load i64, ptr %7, align 8
  %99 = call noundef nonnull align 8 dereferenceable(32) ptr @_ZNSt7__cxx1112basic_stringIcSt11char_traitsIcESaIcEE5eraseEmm(ptr noundef nonnull align 8 dereferenceable(32) %97, i64 noundef %98, i64 noundef 5)
  br label %91, !llvm.loop !9

100:                                              ; preds = %91
  ret void

101:                                              ; preds = %84, %69
  %102 = load ptr, ptr %3, align 8
  %103 = load i32, ptr %4, align 4
  %104 = insertvalue { ptr, i32 } poison, ptr %102, 0
  %105 = insertvalue { ptr, i32 } %104, i32 %103, 1
  resume { ptr, i32 } %105
}