; Function Attrs: mustprogress uwtable
define internal fastcc void @_ZN32pxrInternal_v0_24__pxrReserved__L17_FixupStringNamesEPNSt7__cxx1112basic_stringIcSt11char_traitsIcESaIcEEE(ptr noundef %0) unnamed_addr #0 personality ptr @__gxx_personality_v0 {
  %2 = alloca %"class.std::allocator", align 1
  %3 = load atomic i8, ptr @_ZGVZN32pxrInternal_v0_24__pxrReserved__L17_FixupStringNamesEPNSt7__cxx1112basic_stringIcSt11char_traitsIcESaIcEEEE4fromB5cxx11 acquire, align 8
  %4 = icmp eq i8 %3, 0
  br i1 %4, label %5, label %10, !prof !6

5:                                                ; preds = %1
  %6 = tail call i32 @__cxa_guard_acquire(ptr nonnull @_ZGVZN32pxrInternal_v0_24__pxrReserved__L17_FixupStringNamesEPNSt7__cxx1112basic_stringIcSt11char_traitsIcESaIcEEEE4fromB5cxx11) #14
  %.not = icmp eq i32 %6, 0
  br i1 %.not, label %10, label %7

7:                                                ; preds = %5
  %8 = invoke fastcc noundef ptr @_ZN32pxrInternal_v0_24__pxrReserved__L27_NewDemangledStringTypeNameB5cxx11Ev()
          to label %9 unwind label %38

9:                                                ; preds = %7
  store ptr %8, ptr @_ZZN32pxrInternal_v0_24__pxrReserved__L17_FixupStringNamesEPNSt7__cxx1112basic_stringIcSt11char_traitsIcESaIcEEEE4fromB5cxx11, align 8
  tail call void @__cxa_guard_release(ptr nonnull @_ZGVZN32pxrInternal_v0_24__pxrReserved__L17_FixupStringNamesEPNSt7__cxx1112basic_stringIcSt11char_traitsIcESaIcEEEE4fromB5cxx11) #14
  br label %10

10:                                               ; preds = %9, %5, %1
  %11 = load atomic i8, ptr @_ZGVZN32pxrInternal_v0_24__pxrReserved__L17_FixupStringNamesEPNSt7__cxx1112basic_stringIcSt11char_traitsIcESaIcEEEE2toB5cxx11 acquire, align 8
  %12 = icmp eq i8 %11, 0
  br i1 %12, label %13, label %19, !prof !6

13:                                               ; preds = %10
  %14 = tail call i32 @__cxa_guard_acquire(ptr nonnull @_ZGVZN32pxrInternal_v0_24__pxrReserved__L17_FixupStringNamesEPNSt7__cxx1112basic_stringIcSt11char_traitsIcESaIcEEEE2toB5cxx11) #14
  %.not30 = icmp eq i32 %14, 0
  br i1 %.not30, label %19, label %15

15:                                               ; preds = %13
  %16 = invoke noalias noundef nonnull dereferenceable(32) ptr @_Znwm(i64 noundef 32) #17
          to label %17 unwind label %40

17:                                               ; preds = %15
  call void @_ZNSaIcEC1Ev(ptr noundef nonnull align 1 dereferenceable(1) %2) #14
  invoke void @_ZNSt7__cxx1112basic_stringIcSt11char_traitsIcESaIcEEC2IS3_EEPKcRKS3_(ptr noundef nonnull align 8 dereferenceable(32) %16, ptr noundef nonnull @.str.1, ptr noundef nonnull align 1 dereferenceable(1) %2)
          to label %18 unwind label %42

18:                                               ; preds = %17
  call void @_ZNSaIcED1Ev(ptr noundef nonnull align 1 dereferenceable(1) %2) #14
  store ptr %16, ptr @_ZZN32pxrInternal_v0_24__pxrReserved__L17_FixupStringNamesEPNSt7__cxx1112basic_stringIcSt11char_traitsIcESaIcEEEE2toB5cxx11, align 8
  call void @__cxa_guard_release(ptr nonnull @_ZGVZN32pxrInternal_v0_24__pxrReserved__L17_FixupStringNamesEPNSt7__cxx1112basic_stringIcSt11char_traitsIcESaIcEEEE2toB5cxx11) #14
  br label %19

19:                                               ; preds = %18, %13, %10
  %20 = load ptr, ptr @_ZZN32pxrInternal_v0_24__pxrReserved__L17_FixupStringNamesEPNSt7__cxx1112basic_stringIcSt11char_traitsIcESaIcEEEE4fromB5cxx11, align 8
  %21 = call noundef i64 @_ZNKSt7__cxx1112basic_stringIcSt11char_traitsIcESaIcEE4findERKS4_m(ptr noundef nonnull align 8 dereferenceable(32) %0, ptr noundef nonnull align 8 dereferenceable(32) %20, i64 noundef 0) #14
  %.not3341 = icmp eq i64 %21, -1
  br i1 %.not3341, label %.preheader, label %.lr.ph42

.preheader:                                       ; preds = %.critedge, %19
  %22 = call noundef i64 @_ZNKSt7__cxx1112basic_stringIcSt11char_traitsIcESaIcEE4findEPKcm(ptr noundef nonnull align 8 dereferenceable(32) %0, ptr noundef nonnull @.str.2, i64 noundef 0) #14
  %.not3443 = icmp eq i64 %22, -1
  br i1 %.not3443, label %._crit_edge, label %.lr.ph44

.lr.ph42:                                         ; preds = %19, %.critedge
  %23 = phi i64 [ %47, %.critedge ], [ %21, %19 ]
  %24 = load ptr, ptr @_ZZN32pxrInternal_v0_24__pxrReserved__L17_FixupStringNamesEPNSt7__cxx1112basic_stringIcSt11char_traitsIcESaIcEEEE4fromB5cxx11, align 8
  %25 = call noundef i64 @_ZNKSt7__cxx1112basic_stringIcSt11char_traitsIcESaIcEE4sizeEv(ptr noundef nonnull align 8 dereferenceable(32) %24) #14
  %26 = load ptr, ptr @_ZZN32pxrInternal_v0_24__pxrReserved__L17_FixupStringNamesEPNSt7__cxx1112basic_stringIcSt11char_traitsIcESaIcEEEE2toB5cxx11, align 8
  %27 = call noundef nonnull align 8 dereferenceable(32) ptr @_ZNSt7__cxx1112basic_stringIcSt11char_traitsIcESaIcEE7replaceEmmRKS4_(ptr noundef nonnull align 8 dereferenceable(32) %0, i64 noundef %23, i64 noundef %25, ptr noundef nonnull align 8 dereferenceable(32) %26)
  %28 = load ptr, ptr @_ZZN32pxrInternal_v0_24__pxrReserved__L17_FixupStringNamesEPNSt7__cxx1112basic_stringIcSt11char_traitsIcESaIcEEEE2toB5cxx11, align 8
  %29 = call noundef i64 @_ZNKSt7__cxx1112basic_stringIcSt11char_traitsIcESaIcEE4sizeEv(ptr noundef nonnull align 8 dereferenceable(32) %28) #14
  %30 = add i64 %29, %23
  %31 = call noundef i64 @_ZNKSt7__cxx1112basic_stringIcSt11char_traitsIcESaIcEE4sizeEv(ptr noundef nonnull align 8 dereferenceable(32) %0) #14
  %.not3536 = icmp eq i64 %30, %31
  br i1 %.not3536, label %.critedge, label %.lr.ph

.lr.ph:                                           ; preds = %.lr.ph42, %35
  %.02238 = phi i64 [ %36, %35 ], [ %30, %.lr.ph42 ]
  %.02337 = phi i64 [ %37, %35 ], [ 0, %.lr.ph42 ]
  %32 = call noundef nonnull align 1 dereferenceable(1) ptr @_ZNSt7__cxx1112basic_stringIcSt11char_traitsIcESaIcEEixEm(ptr noundef nonnull align 8 dereferenceable(32) %0, i64 noundef %.02238)
  %33 = load i8, ptr %32, align 1
  %34 = icmp eq i8 %33, 32
  br i1 %34, label %35, label %.critedge

35:                                               ; preds = %.lr.ph
  %36 = add i64 %.02238, 1
  %37 = add i64 %.02337, 1
  %.not35 = icmp eq i64 %36, %31
  br i1 %.not35, label %.critedge, label %.lr.ph, !llvm.loop !7

38:                                               ; preds = %7
  %39 = landingpad { ptr, i32 }
          cleanup
  tail call void @__cxa_guard_abort(ptr nonnull @_ZGVZN32pxrInternal_v0_24__pxrReserved__L17_FixupStringNamesEPNSt7__cxx1112basic_stringIcSt11char_traitsIcESaIcEEEE4fromB5cxx11) #14
  br label %51

40:                                               ; preds = %15
  %41 = landingpad { ptr, i32 }
          cleanup
  br label %44

42:                                               ; preds = %17
  %43 = landingpad { ptr, i32 }
          cleanup
  call void @_ZNSaIcED1Ev(ptr noundef nonnull align 1 dereferenceable(1) %2) #14
  call void @_ZdlPvm(ptr noundef nonnull %16, i64 noundef 32) #18
  br label %44

44:                                               ; preds = %42, %40
  %.pn = phi { ptr, i32 } [ %43, %42 ], [ %41, %40 ]
  call void @__cxa_guard_abort(ptr nonnull @_ZGVZN32pxrInternal_v0_24__pxrReserved__L17_FixupStringNamesEPNSt7__cxx1112basic_stringIcSt11char_traitsIcESaIcEEEE2toB5cxx11) #14
  br label %51

.critedge:                                        ; preds = %.lr.ph, %35, %.lr.ph42
  %.023.lcssa = phi i64 [ 0, %.lr.ph42 ], [ %37, %35 ], [ %.02337, %.lr.ph ]
  %45 = call noundef nonnull align 8 dereferenceable(32) ptr @_ZNSt7__cxx1112basic_stringIcSt11char_traitsIcESaIcEE5eraseEmm(ptr noundef nonnull align 8 dereferenceable(32) %0, i64 noundef %30, i64 noundef %.023.lcssa)
  %46 = load ptr, ptr @_ZZN32pxrInternal_v0_24__pxrReserved__L17_FixupStringNamesEPNSt7__cxx1112basic_stringIcSt11char_traitsIcESaIcEEEE4fromB5cxx11, align 8
  %47 = call noundef i64 @_ZNKSt7__cxx1112basic_stringIcSt11char_traitsIcESaIcEE4findERKS4_m(ptr noundef nonnull align 8 dereferenceable(32) %0, ptr noundef nonnull align 8 dereferenceable(32) %46, i64 noundef %30) #14
  %.not33 = icmp eq i64 %47, -1
  br i1 %.not33, label %.preheader, label %.lr.ph42, !llvm.loop !8

.lr.ph44:                                         ; preds = %.preheader, %.lr.ph44
  %48 = phi i64 [ %50, %.lr.ph44 ], [ %22, %.preheader ]
  %49 = call noundef nonnull align 8 dereferenceable(32) ptr @_ZNSt7__cxx1112basic_stringIcSt11char_traitsIcESaIcEE5eraseEmm(ptr noundef nonnull align 8 dereferenceable(32) %0, i64 noundef %48, i64 noundef 5)
  %50 = call noundef i64 @_ZNKSt7__cxx1112basic_stringIcSt11char_traitsIcESaIcEE4findEPKcm(ptr noundef nonnull align 8 dereferenceable(32) %0, ptr noundef nonnull @.str.2, i64 noundef %48) #14
  %.not34 = icmp eq i64 %50, -1
  br i1 %.not34, label %._crit_edge, label %.lr.ph44, !llvm.loop !9

._crit_edge:                                      ; preds = %.lr.ph44, %.preheader
  ret void

51:                                               ; preds = %44, %38
  %.pn.pn = phi { ptr, i32 } [ %.pn, %44 ], [ %39, %38 ]
  resume { ptr, i32 } %.pn.pn
}